target datalayout = "e-m:e-p270:32:32-p271:32:32-p272:64:64-i64:64-i128:128-f80:128-n8:16:32:64-S128"
target triple = "x86_64-pc-linux-gnu"

%union.anon = type { i32 }
%struct.BITv06_DStream_t = type { i64, i32, ptr, ptr }

@__const.MEM_isLittleEndian.one = private unnamed_addr constant %union.anon { i32 1 }, align 4

; Function Attrs: inlinehint nounwind uwtable
define internal i64 @MEM_swap64(i64 noundef %0) #2 {
  %2 = alloca i64, align 8
  store i64 %0, ptr %2, align 8, !tbaa !3
  %3 = load i64, ptr %2, align 8, !tbaa !3
  %4 = shl i64 %3, 56
  %5 = and i64 %4, -72057594037927936
  %6 = load i64, ptr %2, align 8, !tbaa !3
  %7 = shl i64 %6, 40
  %8 = and i64 %7, 71776119061217280
  %9 = or i64 %5, %8
  %10 = load i64, ptr %2, align 8, !tbaa !3
  %11 = shl i64 %10, 24
  %12 = and i64 %11, 280375465082880
  %13 = or i64 %9, %12
  %14 = load i64, ptr %2, align 8, !tbaa !3
  %15 = shl i64 %14, 8
  %16 = and i64 %15, 1095216660480
  %17 = or i64 %13, %16
  %18 = load i64, ptr %2, align 8, !tbaa !3
  %19 = lshr i64 %18, 8
  %20 = and i64 %19, 4278190080
  %21 = or i64 %17, %20
  %22 = load i64, ptr %2, align 8, !tbaa !3
  %23 = lshr i64 %22, 24
  %24 = and i64 %23, 16711680
  %25 = or i64 %21, %24
  %26 = load i64, ptr %2, align 8, !tbaa !3
  %27 = lshr i64 %26, 40
  %28 = and i64 %27, 65280
  %29 = or i64 %25, %28
  %30 = load i64, ptr %2, align 8, !tbaa !3
  %31 = lshr i64 %30, 56
  %32 = and i64 %31, 255
  %33 = or i64 %29, %32
  ret i64 %33
}

; Function Attrs: inlinehint nounwind uwtable
define internal i64 @MEM_read64(ptr noundef %0) #2 {
  %2 = alloca ptr, align 8
  %3 = alloca i64, align 8
  store ptr %0, ptr %2, align 8, !tbaa !12
  call void @llvm.lifetime.start.p0(i64 8, ptr %3) #10
  %4 = load ptr, ptr %2, align 8, !tbaa !12
  call void @llvm.memcpy.p0.p0.i64(ptr align 8 %3, ptr align 1 %4, i64 8, i1 false)
  %5 = load i64, ptr %3, align 8, !tbaa !3
  call void @llvm.lifetime.end.p0(i64 8, ptr %3) #10
  ret i64 %5
}

; Function Attrs: inlinehint nounwind uwtable
define internal i32 @MEM_swap32(i32 noundef %0) #2 {
  %2 = alloca i32, align 4
  store i32 %0, ptr %2, align 4, !tbaa !15
  %3 = load i32, ptr %2, align 4, !tbaa !15
  %4 = shl i32 %3, 24
  %5 = and i32 %4, -16777216
  %6 = load i32, ptr %2, align 4, !tbaa !15
  %7 = shl i32 %6, 8
  %8 = and i32 %7, 16711680
  %9 = or i32 %5, %8
  %10 = load i32, ptr %2, align 4, !tbaa !15
  %11 = lshr i32 %10, 8
  %12 = and i32 %11, 65280
  %13 = or i32 %9, %12
  %14 = load i32, ptr %2, align 4, !tbaa !15
  %15 = lshr i32 %14, 24
  %16 = and i32 %15, 255
  %17 = or i32 %13, %16
  ret i32 %17
}

; Function Attrs: inlinehint nounwind uwtable
define internal i32 @MEM_read32(ptr noundef %0) #2 {
  %2 = alloca ptr, align 8
  %3 = alloca i32, align 4
  store ptr %0, ptr %2, align 8, !tbaa !12
  call void @llvm.lifetime.start.p0(i64 4, ptr %3) #10
  %4 = load ptr, ptr %2, align 8, !tbaa !12
  call void @llvm.memcpy.p0.p0.i64(ptr align 4 %3, ptr align 1 %4, i64 4, i1 false)
  %5 = load i32, ptr %3, align 4, !tbaa !15
  call void @llvm.lifetime.end.p0(i64 4, ptr %3) #10
  ret i32 %5
}

; Function Attrs: inlinehint nounwind uwtable
define internal i32 @MEM_isLittleEndian() #2 {
  %1 = alloca %union.anon, align 4
  call void @llvm.lifetime.start.p0(i64 4, ptr %1) #10
  call void @llvm.memcpy.p0.p0.i64(ptr align 4 %1, ptr align 4 @__const.MEM_isLittleEndian.one, i64 4, i1 false)
  %2 = getelementptr inbounds [4 x i8], ptr %1, i64 0, i64 0
  %3 = load i8, ptr %2, align 4, !tbaa !34
  %4 = zext i8 %3 to i32
  call void @llvm.lifetime.end.p0(i64 4, ptr %1) #10
  ret i32 %4
}

; Function Attrs: inlinehint nounwind uwtable
define internal i64 @MEM_readLE64(ptr noundef %0) #2 {
  %2 = alloca i64, align 8
  %3 = alloca ptr, align 8
  store ptr %0, ptr %3, align 8, !tbaa !12
  %4 = call i32 @MEM_isLittleEndian()
  %5 = icmp ne i32 %4, 0
  br i1 %5, label %6, label %9

6:                                                ; preds = %1
  %7 = load ptr, ptr %3, align 8, !tbaa !12
  %8 = call i64 @MEM_read64(ptr noundef %7)
  store i64 %8, ptr %2, align 8
  br label %13

9:                                                ; preds = %1
  %10 = load ptr, ptr %3, align 8, !tbaa !12
  %11 = call i64 @MEM_read64(ptr noundef %10)
  %12 = call i64 @MEM_swap64(i64 noundef %11)
  store i64 %12, ptr %2, align 8
  br label %13

13:                                               ; preds = %9, %6
  %14 = load i64, ptr %2, align 8
  ret i64 %14
}

; Function Attrs: inlinehint nounwind uwtable
define internal i32 @MEM_readLE32(ptr noundef %0) #2 {
  %2 = alloca i32, align 4
  %3 = alloca ptr, align 8
  store ptr %0, ptr %3, align 8, !tbaa !12
  %4 = call i32 @MEM_isLittleEndian()
  %5 = icmp ne i32 %4, 0
  br i1 %5, label %6, label %9

6:                                                ; preds = %1
  %7 = load ptr, ptr %3, align 8, !tbaa !12
  %8 = call i32 @MEM_read32(ptr noundef %7)
  store i32 %8, ptr %2, align 4
  br label %13

9:                                                ; preds = %1
  %10 = load ptr, ptr %3, align 8, !tbaa !12
  %11 = call i32 @MEM_read32(ptr noundef %10)
  %12 = call i32 @MEM_swap32(i32 noundef %11)
  store i32 %12, ptr %2, align 4
  br label %13

13:                                               ; preds = %9, %6
  %14 = load i32, ptr %2, align 4
  ret i32 %14
}

; Function Attrs: inlinehint nounwind uwtable
define internal i32 @MEM_32bits() #2 {
  ret i32 0
}

; Function Attrs: inlinehint nounwind uwtable
define internal i32 @BITv06_highbit32(i32 noundef %0) #2 {
  %2 = alloca i32, align 4
  store i32 %0, ptr %2, align 4, !tbaa !15
  %3 = load i32, ptr %2, align 4, !tbaa !15
  %4 = call i32 @llvm.ctlz.i32(i32 %3, i1 true)
  %5 = xor i32 %4, 31
  ret i32 %5
}

; Function Attrs: inlinehint nounwind uwtable
define internal i64 @MEM_readLEST(ptr noundef %0) #2 {
  %2 = alloca i64, align 8
  %3 = alloca ptr, align 8
  store ptr %0, ptr %3, align 8, !tbaa !12
  %4 = call i32 @MEM_32bits()
  %5 = icmp ne i32 %4, 0
  br i1 %5, label %6, label %10

6:                                                ; preds = %1
  %7 = load ptr, ptr %3, align 8, !tbaa !12
  %8 = call i32 @MEM_readLE32(ptr noundef %7)
  %9 = zext i32 %8 to i64
  store i64 %9, ptr %2, align 8
  br label %13

10:                                               ; preds = %1
  %11 = load ptr, ptr %3, align 8, !tbaa !12
  %12 = call i64 @MEM_readLE64(ptr noundef %11)
  store i64 %12, ptr %2, align 8
  br label %13

13:                                               ; preds = %10, %6
  %14 = load i64, ptr %2, align 8
  ret i64 %14
}

; Function Attrs: inlinehint nounwind uwtable
define internal i64 @BITv06_initDStream(ptr noundef %0, ptr noundef %1, i64 noundef %2) #2 {
  %4 = alloca i64, align 8
  %5 = alloca ptr, align 8
  %6 = alloca ptr, align 8
  %7 = alloca i64, align 8
  %8 = alloca i8, align 1
  %9 = alloca i32, align 4
  %10 = alloca i8, align 1
  store ptr %0, ptr %5, align 8, !tbaa !12
  store ptr %1, ptr %6, align 8, !tbaa !12
  store i64 %2, ptr %7, align 8, !tbaa !3
  %11 = load i64, ptr %7, align 8, !tbaa !3
  %12 = icmp ult i64 %11, 1
  br i1 %12, label %13, label %15

13:                                               ; preds = %3
  %14 = load ptr, ptr %5, align 8, !tbaa !12
  call void @llvm.memset.p0.i64(ptr align 8 %14, i8 0, i64 32, i1 false)
  store i64 -72, ptr %4, align 8
  br label %161

15:                                               ; preds = %3
  %16 = load i64, ptr %7, align 8, !tbaa !3
  %17 = icmp uge i64 %16, 8
  br i1 %17, label %18, label %53

18:                                               ; preds = %15
  %19 = load ptr, ptr %6, align 8, !tbaa !12
  %20 = load ptr, ptr %5, align 8, !tbaa !12
  %21 = getelementptr inbounds nuw %struct.BITv06_DStream_t, ptr %20, i32 0, i32 3
  store ptr %19, ptr %21, align 8, !tbaa !49
  %22 = load ptr, ptr %6, align 8, !tbaa !12
  %23 = load i64, ptr %7, align 8, !tbaa !3
  %24 = getelementptr inbounds nuw i8, ptr %22, i64 %23
  %25 = getelementptr inbounds i8, ptr %24, i64 -8
  %26 = load ptr, ptr %5, align 8, !tbaa !12
  %27 = getelementptr inbounds nuw %struct.BITv06_DStream_t, ptr %26, i32 0, i32 2
  store ptr %25, ptr %27, align 8, !tbaa !51
  %28 = load ptr, ptr %5, align 8, !tbaa !12
  %29 = getelementptr inbounds nuw %struct.BITv06_DStream_t, ptr %28, i32 0, i32 2
  %30 = load ptr, ptr %29, align 8, !tbaa !51
  %31 = call i64 @MEM_readLEST(ptr noundef %30)
  %32 = load ptr, ptr %5, align 8, !tbaa !12
  %33 = getelementptr inbounds nuw %struct.BITv06_DStream_t, ptr %32, i32 0, i32 0
  store i64 %31, ptr %33, align 8, !tbaa !52
  call void @llvm.lifetime.start.p0(i64 1, ptr %8) #10
  %34 = load ptr, ptr %6, align 8, !tbaa !12
  %35 = load i64, ptr %7, align 8, !tbaa !3
  %36 = sub i64 %35, 1
  %37 = getelementptr inbounds nuw i8, ptr %34, i64 %36
  %38 = load i8, ptr %37, align 1, !tbaa !34
  store i8 %38, ptr %8, align 1, !tbaa !34
  %39 = load i8, ptr %8, align 1, !tbaa !34
  %40 = zext i8 %39 to i32
  %41 = icmp eq i32 %40, 0
  br i1 %41, label %42, label %43

42:                                               ; preds = %18
  store i64 -1, ptr %4, align 8
  store i32 1, ptr %9, align 4
  br label %50

43:                                               ; preds = %18
  %44 = load i8, ptr %8, align 1, !tbaa !34
  %45 = zext i8 %44 to i32
  %46 = call i32 @BITv06_highbit32(i32 noundef %45)
  %47 = sub i32 8, %46
  %48 = load ptr, ptr %5, align 8, !tbaa !12
  %49 = getelementptr inbounds nuw %struct.BITv06_DStream_t, ptr %48, i32 0, i32 1
  store i32 %47, ptr %49, align 8, !tbaa !53
  store i32 0, ptr %9, align 4
  br label %50

50:                                               ; preds = %43, %42
  call void @llvm.lifetime.end.p0(i64 1, ptr %8) #10
  %51 = load i32, ptr %9, align 4
  switch i32 %51, label %163 [
    i32 0, label %52
    i32 1, label %161
  ]

52:                                               ; preds = %50
  br label %159

53:                                               ; preds = %15
  %54 = load ptr, ptr %6, align 8, !tbaa !12
  %55 = load ptr, ptr %5, align 8, !tbaa !12
  %56 = getelementptr inbounds nuw %struct.BITv06_DStream_t, ptr %55, i32 0, i32 3
  store ptr %54, ptr %56, align 8, !tbaa !49
  %57 = load ptr, ptr %5, align 8, !tbaa !12
  %58 = getelementptr inbounds nuw %struct.BITv06_DStream_t, ptr %57, i32 0, i32 3
  %59 = load ptr, ptr %58, align 8, !tbaa !49
  %60 = load ptr, ptr %5, align 8, !tbaa !12
  %61 = getelementptr inbounds nuw %struct.BITv06_DStream_t, ptr %60, i32 0, i32 2
  store ptr %59, ptr %61, align 8, !tbaa !51
  %62 = load ptr, ptr %5, align 8, !tbaa !12
  %63 = getelementptr inbounds nuw %struct.BITv06_DStream_t, ptr %62, i32 0, i32 3
  %64 = load ptr, ptr %63, align 8, !tbaa !49
  %65 = load i8, ptr %64, align 1, !tbaa !34
  %66 = zext i8 %65 to i64
  %67 = load ptr, ptr %5, align 8, !tbaa !12
  %68 = getelementptr inbounds nuw %struct.BITv06_DStream_t, ptr %67, i32 0, i32 0
  store i64 %66, ptr %68, align 8, !tbaa !52
  %69 = load i64, ptr %7, align 8, !tbaa !3
  switch i64 %69, label %130 [
    i64 7, label %70
    i64 6, label %80
    i64 5, label %90
    i64 4, label %100
    i64 3, label %110
    i64 2, label %120
  ]

70:                                               ; preds = %53
  %71 = load ptr, ptr %6, align 8, !tbaa !12
  %72 = getelementptr inbounds i8, ptr %71, i64 6
  %73 = load i8, ptr %72, align 1, !tbaa !34
  %74 = zext i8 %73 to i64
  %75 = shl i64 %74, 48
  %76 = load ptr, ptr %5, align 8, !tbaa !12
  %77 = getelementptr inbounds nuw %struct.BITv06_DStream_t, ptr %76, i32 0, i32 0
  %78 = load i64, ptr %77, align 8, !tbaa !52
  %79 = add i64 %78, %75
  store i64 %79, ptr %77, align 8, !tbaa !52
  br label %80

80:                                               ; preds = %53, %70
  %81 = load ptr, ptr %6, align 8, !tbaa !12
  %82 = getelementptr inbounds i8, ptr %81, i64 5
  %83 = load i8, ptr %82, align 1, !tbaa !34
  %84 = zext i8 %83 to i64
  %85 = shl i64 %84, 40
  %86 = load ptr, ptr %5, align 8, !tbaa !12
  %87 = getelementptr inbounds nuw %struct.BITv06_DStream_t, ptr %86, i32 0, i32 0
  %88 = load i64, ptr %87, align 8, !tbaa !52
  %89 = add i64 %88, %85
  store i64 %89, ptr %87, align 8, !tbaa !52
  br label %90

90:                                               ; preds = %53, %80
  %91 = load ptr, ptr %6, align 8, !tbaa !12
  %92 = getelementptr inbounds i8, ptr %91, i64 4
  %93 = load i8, ptr %92, align 1, !tbaa !34
  %94 = zext i8 %93 to i64
  %95 = shl i64 %94, 32
  %96 = load ptr, ptr %5, align 8, !tbaa !12
  %97 = getelementptr inbounds nuw %struct.BITv06_DStream_t, ptr %96, i32 0, i32 0
  %98 = load i64, ptr %97, align 8, !tbaa !52
  %99 = add i64 %98, %95
  store i64 %99, ptr %97, align 8, !tbaa !52
  br label %100

100:                                              ; preds = %53, %90
  %101 = load ptr, ptr %6, align 8, !tbaa !12
  %102 = getelementptr inbounds i8, ptr %101, i64 3
  %103 = load i8, ptr %102, align 1, !tbaa !34
  %104 = zext i8 %103 to i64
  %105 = shl i64 %104, 24
  %106 = load ptr, ptr %5, align 8, !tbaa !12
  %107 = getelementptr inbounds nuw %struct.BITv06_DStream_t, ptr %106, i32 0, i32 0
  %108 = load i64, ptr %107, align 8, !tbaa !52
  %109 = add i64 %108, %105
  store i64 %109, ptr %107, align 8, !tbaa !52
  br label %110

110:                                              ; preds = %53, %100
  %111 = load ptr, ptr %6, align 8, !tbaa !12
  %112 = getelementptr inbounds i8, ptr %111, i64 2
  %113 = load i8, ptr %112, align 1, !tbaa !34
  %114 = zext i8 %113 to i64
  %115 = shl i64 %114, 16
  %116 = load ptr, ptr %5, align 8, !tbaa !12
  %117 = getelementptr inbounds nuw %struct.BITv06_DStream_t, ptr %116, i32 0, i32 0
  %118 = load i64, ptr %117, align 8, !tbaa !52
  %119 = add i64 %118, %115
  store i64 %119, ptr %117, align 8, !tbaa !52
  br label %120

120:                                              ; preds = %53, %110
  %121 = load ptr, ptr %6, align 8, !tbaa !12
  %122 = getelementptr inbounds i8, ptr %121, i64 1
  %123 = load i8, ptr %122, align 1, !tbaa !34
  %124 = zext i8 %123 to i64
  %125 = shl i64 %124, 8
  %126 = load ptr, ptr %5, align 8, !tbaa !12
  %127 = getelementptr inbounds nuw %struct.BITv06_DStream_t, ptr %126, i32 0, i32 0
  %128 = load i64, ptr %127, align 8, !tbaa !52
  %129 = add i64 %128, %125
  store i64 %129, ptr %127, align 8, !tbaa !52
  br label %130

130:                                              ; preds = %53, %120
  br label %131

131:                                              ; preds = %130
  call void @llvm.lifetime.start.p0(i64 1, ptr %10) #10
  %132 = load ptr, ptr %6, align 8, !tbaa !12
  %133 = load i64, ptr %7, align 8, !tbaa !3
  %134 = sub i64 %133, 1
  %135 = getelementptr inbounds nuw i8, ptr %132, i64 %134
  %136 = load i8, ptr %135, align 1, !tbaa !34
  store i8 %136, ptr %10, align 1, !tbaa !34
  %137 = load i8, ptr %10, align 1, !tbaa !34
  %138 = zext i8 %137 to i32
  %139 = icmp eq i32 %138, 0
  br i1 %139, label %140, label %141

140:                                              ; preds = %131
  store i64 -1, ptr %4, align 8
  store i32 1, ptr %9, align 4
  br label %148

141:                                              ; preds = %131
  %142 = load i8, ptr %10, align 1, !tbaa !34
  %143 = zext i8 %142 to i32
  %144 = call i32 @BITv06_highbit32(i32 noundef %143)
  %145 = sub i32 8, %144
  %146 = load ptr, ptr %5, align 8, !tbaa !12
  %147 = getelementptr inbounds nuw %struct.BITv06_DStream_t, ptr %146, i32 0, i32 1
  store i32 %145, ptr %147, align 8, !tbaa !53
  store i32 0, ptr %9, align 4
  br label %148

148:                                              ; preds = %141, %140
  call void @llvm.lifetime.end.p0(i64 1, ptr %10) #10
  %149 = load i32, ptr %9, align 4
  switch i32 %149, label %163 [
    i32 0, label %150
    i32 1, label %161
  ]

150:                                              ; preds = %148
  %151 = load i64, ptr %7, align 8, !tbaa !3
  %152 = sub i64 8, %151
  %153 = trunc i64 %152 to i32
  %154 = mul i32 %153, 8
  %155 = load ptr, ptr %5, align 8, !tbaa !12
  %156 = getelementptr inbounds nuw %struct.BITv06_DStream_t, ptr %155, i32 0, i32 1
  %157 = load i32, ptr %156, align 8, !tbaa !53
  %158 = add i32 %157, %154
  store i32 %158, ptr %156, align 8, !tbaa !53
  br label %159

159:                                              ; preds = %150, %52
  %160 = load i64, ptr %7, align 8, !tbaa !3
  store i64 %160, ptr %4, align 8
  br label %161

161:                                              ; preds = %159, %148, %50, %13
  %162 = load i64, ptr %4, align 8
  ret i64 %162

163:                                              ; preds = %148, %50
  unreachable
}