; Function Attrs: inlinehint mustprogress nofree norecurse nosync nounwind willreturn memory(argmem: readwrite) uwtable
define internal fastcc range(i64 1, 0) i64 @BITv06_initDStream(ptr noundef nonnull writeonly captures(none) initializes((0, 8), (16, 32)) %0, ptr noundef %1, i64 noundef %2) unnamed_addr #13 {
  %4 = icmp eq i64 %2, 0
  br i1 %4, label %5, label %6

5:                                                ; preds = %3
  tail call void @llvm.memset.p0.i64(ptr noundef nonnull align 8 dereferenceable(32) %0, i8 0, i64 32, i1 false)
  br label %79

6:                                                ; preds = %3
  %7 = icmp ugt i64 %2, 7
  %8 = getelementptr inbounds nuw i8, ptr %0, i64 24
  store ptr %1, ptr %8, align 8, !tbaa !34
  br i1 %7, label %9, label %21

9:                                                ; preds = %6
  %10 = getelementptr inbounds nuw i8, ptr %1, i64 %2
  %11 = getelementptr inbounds i8, ptr %10, i64 -8
  %12 = getelementptr inbounds nuw i8, ptr %0, i64 16
  store ptr %11, ptr %12, align 8, !tbaa !39
  %.val = load i64, ptr %11, align 1
  store i64 %.val, ptr %0, align 8, !tbaa !40
  %13 = getelementptr i8, ptr %10, i64 -1
  %14 = load i8, ptr %13, align 1, !tbaa !27
  %15 = icmp eq i8 %14, 0
  br i1 %15, label %79, label %.thread

.thread:                                          ; preds = %9
  %16 = zext i8 %14 to i32
  %17 = tail call range(i32 0, 33) i32 @llvm.ctlz.i32(i32 %16, i1 true)
  %18 = xor i32 %17, 31
  %19 = sub nuw nsw i32 8, %18
  %20 = getelementptr inbounds nuw i8, ptr %0, i64 8
  store i32 %19, ptr %20, align 8, !tbaa !41
  br label %79

21:                                               ; preds = %6
  %22 = getelementptr inbounds nuw i8, ptr %0, i64 16
  store ptr %1, ptr %22, align 8, !tbaa !39
  %23 = load i8, ptr %1, align 1, !tbaa !27
  %24 = zext i8 %23 to i64
  store i64 %24, ptr %0, align 8, !tbaa !40
  switch i64 %2, label %66 [
    i64 7, label %25
    i64 6, label %31
    i64 5, label %38
    i64 4, label %45
    i64 3, label %52
    i64 2, label %59
  ]

25:                                               ; preds = %21
  %26 = getelementptr inbounds nuw i8, ptr %1, i64 6
  %27 = load i8, ptr %26, align 1, !tbaa !27
  %28 = zext i8 %27 to i64
  %29 = shl nuw nsw i64 %28, 48
  %30 = or disjoint i64 %29, %24
  store i64 %30, ptr %0, align 8, !tbaa !40
  br label %31

31:                                               ; preds = %25, %21
  %32 = phi i64 [ %30, %25 ], [ %24, %21 ]
  %33 = getelementptr inbounds nuw i8, ptr %1, i64 5
  %34 = load i8, ptr %33, align 1, !tbaa !27
  %35 = zext i8 %34 to i64
  %36 = shl nuw nsw i64 %35, 40
  %37 = add nuw nsw i64 %36, %32
  store i64 %37, ptr %0, align 8, !tbaa !40
  br label %38

38:                                               ; preds = %31, %21
  %39 = phi i64 [ %37, %31 ], [ %24, %21 ]
  %40 = getelementptr inbounds nuw i8, ptr %1, i64 4
  %41 = load i8, ptr %40, align 1, !tbaa !27
  %42 = zext i8 %41 to i64
  %43 = shl nuw nsw i64 %42, 32
  %44 = add nuw nsw i64 %43, %39
  store i64 %44, ptr %0, align 8, !tbaa !40
  br label %45

45:                                               ; preds = %38, %21
  %46 = phi i64 [ %44, %38 ], [ %24, %21 ]
  %47 = getelementptr inbounds nuw i8, ptr %1, i64 3
  %48 = load i8, ptr %47, align 1, !tbaa !27
  %49 = zext i8 %48 to i64
  %50 = shl nuw nsw i64 %49, 24
  %51 = add nuw nsw i64 %50, %46
  store i64 %51, ptr %0, align 8, !tbaa !40
  br label %52

52:                                               ; preds = %45, %21
  %53 = phi i64 [ %51, %45 ], [ %24, %21 ]
  %54 = getelementptr inbounds nuw i8, ptr %1, i64 2
  %55 = load i8, ptr %54, align 1, !tbaa !27
  %56 = zext i8 %55 to i64
  %57 = shl nuw nsw i64 %56, 16
  %58 = add nuw nsw i64 %57, %53
  store i64 %58, ptr %0, align 8, !tbaa !40
  br label %59

59:                                               ; preds = %52, %21
  %60 = phi i64 [ %58, %52 ], [ %24, %21 ]
  %61 = getelementptr inbounds nuw i8, ptr %1, i64 1
  %62 = load i8, ptr %61, align 1, !tbaa !27
  %63 = zext i8 %62 to i64
  %64 = shl nuw nsw i64 %63, 8
  %65 = add nuw nsw i64 %64, %60
  store i64 %65, ptr %0, align 8, !tbaa !40
  br label %66

66:                                               ; preds = %21, %59
  %67 = getelementptr i8, ptr %1, i64 %2
  %68 = getelementptr i8, ptr %67, i64 -1
  %69 = load i8, ptr %68, align 1, !tbaa !27
  %70 = icmp eq i8 %69, 0
  br i1 %70, label %79, label %71

71:                                               ; preds = %66
  %72 = zext i8 %69 to i32
  %73 = tail call range(i32 0, 33) i32 @llvm.ctlz.i32(i32 %72, i1 true)
  %74 = trunc nuw i64 %2 to i32
  %75 = getelementptr inbounds nuw i8, ptr %0, i64 8
  %76 = shl nuw nsw i32 %74, 3
  %77 = sub nsw i32 %73, %76
  %78 = add nsw i32 %77, 41
  store i32 %78, ptr %75, align 8, !tbaa !41
  br label %79

79:                                               ; preds = %71, %.thread, %66, %9, %5
  %.0 = phi i64 [ -72, %5 ], [ -1, %9 ], [ -1, %66 ], [ %2, %.thread ], [ %2, %71 ]
  ret i64 %.0
}